target datalayout = "e-m:e-p270:32:32-p271:32:32-p272:64:64-i64:64-i128:128-f80:128-n8:16:32:64-S128"
target triple = "x86_64-pc-linux-gnu"

%struct.PS_Parser_FuncsRec_ = type { ptr, ptr, ptr, ptr, ptr, ptr, ptr, ptr, ptr, ptr, ptr, ptr, ptr }
%struct.PS_ParserRec_ = type { ptr, ptr, ptr, i32, ptr, %struct.PS_Parser_FuncsRec_ }

; Function Attrs: nounwind uwtable
define internal void @skip_comment(ptr noundef %0, ptr noundef %1) #0 {
  %3 = alloca ptr, align 8
  %4 = alloca ptr, align 8
  %5 = alloca ptr, align 8
  store ptr %0, ptr %3, align 8
  store ptr %1, ptr %4, align 8
  %6 = load ptr, ptr %3, align 8
  %7 = load ptr, ptr %6, align 8
  store ptr %7, ptr %5, align 8
  br label %8

8:                                                ; preds = %23, %2
  %9 = load ptr, ptr %5, align 8
  %10 = load ptr, ptr %4, align 8
  %11 = icmp ult ptr %9, %10
  br i1 %11, label %12, label %26

12:                                               ; preds = %8
  %13 = load ptr, ptr %5, align 8
  %14 = load i8, ptr %13, align 1
  %15 = zext i8 %14 to i32
  %16 = icmp eq i32 %15, 13
  br i1 %16, label %22, label %17

17:                                               ; preds = %12
  %18 = load ptr, ptr %5, align 8
  %19 = load i8, ptr %18, align 1
  %20 = zext i8 %19 to i32
  %21 = icmp eq i32 %20, 10
  br i1 %21, label %22, label %23

22:                                               ; preds = %17, %12
  br label %26

23:                                               ; preds = %17
  %24 = load ptr, ptr %5, align 8
  %25 = getelementptr inbounds i8, ptr %24, i32 1
  store ptr %25, ptr %5, align 8
  br label %8, !llvm.loop !45

26:                                               ; preds = %22, %8
  %27 = load ptr, ptr %5, align 8
  %28 = load ptr, ptr %3, align 8
  store ptr %27, ptr %28, align 8
  ret void
}

; Function Attrs: nounwind uwtable
define internal void @skip_spaces(ptr noundef %0, ptr noundef %1) #0 {
  %3 = alloca ptr, align 8
  %4 = alloca ptr, align 8
  %5 = alloca ptr, align 8
  store ptr %0, ptr %3, align 8
  store ptr %1, ptr %4, align 8
  %6 = load ptr, ptr %3, align 8
  %7 = load ptr, ptr %6, align 8
  store ptr %7, ptr %5, align 8
  br label %8

8:                                                ; preds = %51, %2
  %9 = load ptr, ptr %5, align 8
  %10 = load ptr, ptr %4, align 8
  %11 = icmp ult ptr %9, %10
  br i1 %11, label %12, label %54

12:                                               ; preds = %8
  %13 = load ptr, ptr %5, align 8
  %14 = load i8, ptr %13, align 1
  %15 = zext i8 %14 to i32
  %16 = icmp eq i32 %15, 32
  br i1 %16, label %51, label %17

17:                                               ; preds = %12
  %18 = load ptr, ptr %5, align 8
  %19 = load i8, ptr %18, align 1
  %20 = zext i8 %19 to i32
  %21 = icmp eq i32 %20, 13
  br i1 %21, label %51, label %22

22:                                               ; preds = %17
  %23 = load ptr, ptr %5, align 8
  %24 = load i8, ptr %23, align 1
  %25 = zext i8 %24 to i32
  %26 = icmp eq i32 %25, 10
  br i1 %26, label %51, label %27

27:                                               ; preds = %22
  %28 = load ptr, ptr %5, align 8
  %29 = load i8, ptr %28, align 1
  %30 = zext i8 %29 to i32
  %31 = icmp eq i32 %30, 9
  br i1 %31, label %51, label %32

32:                                               ; preds = %27
  %33 = load ptr, ptr %5, align 8
  %34 = load i8, ptr %33, align 1
  %35 = zext i8 %34 to i32
  %36 = icmp eq i32 %35, 12
  br i1 %36, label %51, label %37

37:                                               ; preds = %32
  %38 = load ptr, ptr %5, align 8
  %39 = load i8, ptr %38, align 1
  %40 = zext i8 %39 to i32
  %41 = icmp eq i32 %40, 0
  br i1 %41, label %51, label %42

42:                                               ; preds = %37
  %43 = load ptr, ptr %5, align 8
  %44 = load i8, ptr %43, align 1
  %45 = zext i8 %44 to i32
  %46 = icmp eq i32 %45, 37
  br i1 %46, label %47, label %49

47:                                               ; preds = %42
  %48 = load ptr, ptr %4, align 8
  call void @skip_comment(ptr noundef %5, ptr noundef %48)
  br label %50

49:                                               ; preds = %42
  br label %54

50:                                               ; preds = %47
  br label %51

51:                                               ; preds = %50, %37, %32, %27, %22, %17, %12
  %52 = load ptr, ptr %5, align 8
  %53 = getelementptr inbounds i8, ptr %52, i32 1
  store ptr %53, ptr %5, align 8
  br label %8, !llvm.loop !40

54:                                               ; preds = %49, %8
  %55 = load ptr, ptr %5, align 8
  %56 = load ptr, ptr %3, align 8
  store ptr %55, ptr %56, align 8
  ret void
}

; Function Attrs: nounwind uwtable
define internal void @ps_parser_skip_spaces(ptr noundef %0) #0 {
  %2 = alloca ptr, align 8
  store ptr %0, ptr %2, align 8
  %3 = load ptr, ptr %2, align 8
  %4 = getelementptr inbounds %struct.PS_ParserRec_, ptr %3, i32 0, i32 0
  %5 = load ptr, ptr %2, align 8
  %6 = getelementptr inbounds %struct.PS_ParserRec_, ptr %5, i32 0, i32 2
  %7 = load ptr, ptr %6, align 8
  call void @skip_spaces(ptr noundef %4, ptr noundef %7)
  ret void
}

; Function Attrs: nounwind uwtable
define internal i64 @ps_parser_to_int(ptr noundef %0) #0 {
  %2 = alloca ptr, align 8
  store ptr %0, ptr %2, align 8
  %3 = load ptr, ptr %2, align 8
  call void @ps_parser_skip_spaces(ptr noundef %3)
  %4 = load ptr, ptr %2, align 8
  %5 = getelementptr inbounds %struct.PS_ParserRec_, ptr %4, i32 0, i32 0
  %6 = load ptr, ptr %2, align 8
  %7 = getelementptr inbounds %struct.PS_ParserRec_, ptr %6, i32 0, i32 2
  %8 = load ptr, ptr %7, align 8
  %9 = call i64 @PS_Conv_ToInt(ptr noundef %5, ptr noundef %8)
  ret i64 %9
}