; Function Attrs: nofree norecurse nosync nounwind memory(readwrite, inaccessiblemem: none) uwtable
define internal i64 @ps_parser_to_int(ptr noundef captures(none) %0) #4 {
  %2 = getelementptr inbounds nuw i8, ptr %0, i64 16
  %3 = load ptr, ptr %2, align 8
  %4 = load ptr, ptr %0, align 8
  %5 = icmp ult ptr %4, %3
  br i1 %5, label %.lr.ph.i.i, label %ps_parser_skip_spaces.exit

.lr.ph.i.i:                                       ; preds = %1
  %6 = ptrtoint ptr %3 to i64
  br label %7

7:                                                ; preds = %skip_comment.exit.i.i, %.lr.ph.i.i
  %storemerge8.i.i = phi ptr [ %4, %.lr.ph.i.i ], [ %14, %skip_comment.exit.i.i ]
  %8 = load i8, ptr %storemerge8.i.i, align 1
  switch i8 %8, label %ps_parser_skip_spaces.exit [
    i8 32, label %skip_comment.exit.i.i
    i8 13, label %skip_comment.exit.i.i
    i8 10, label %skip_comment.exit.i.i
    i8 9, label %skip_comment.exit.i.i
    i8 12, label %skip_comment.exit.i.i
    i8 0, label %skip_comment.exit.i.i
    i8 37, label %.lr.ph.preheader.i.i.i
  ]

.lr.ph.preheader.i.i.i:                           ; preds = %7
  %9 = ptrtoint ptr %storemerge8.i.i to i64
  %10 = sub i64 %6, %9
  %scevgep.i.i.i = getelementptr i8, ptr %storemerge8.i.i, i64 %10
  br label %.lr.ph.i.i.i

.lr.ph.ithread-pre-split.i.i:                     ; preds = %12
  %.pr.i.i = load i8, ptr %13, align 1
  br label %.lr.ph.i.i.i

.lr.ph.i.i.i:                                     ; preds = %.lr.ph.ithread-pre-split.i.i, %.lr.ph.preheader.i.i.i
  %11 = phi i8 [ %.pr.i.i, %.lr.ph.ithread-pre-split.i.i ], [ 37, %.lr.ph.preheader.i.i.i ]
  %.09.i.i.i = phi ptr [ %13, %.lr.ph.ithread-pre-split.i.i ], [ %storemerge8.i.i, %.lr.ph.preheader.i.i.i ]
  switch i8 %11, label %12 [
    i8 13, label %skip_comment.exit.i.i
    i8 10, label %skip_comment.exit.i.i
  ]

12:                                               ; preds = %.lr.ph.i.i.i
  %13 = getelementptr inbounds nuw i8, ptr %.09.i.i.i, i64 1
  %exitcond.not.i.i.i = icmp eq ptr %13, %3
  br i1 %exitcond.not.i.i.i, label %skip_comment.exit.i.i, label %.lr.ph.ithread-pre-split.i.i, !llvm.loop !7

skip_comment.exit.i.i:                            ; preds = %12, %.lr.ph.i.i.i, %.lr.ph.i.i.i, %7, %7, %7, %7, %7, %7
  %.0.i.i = phi ptr [ %storemerge8.i.i, %7 ], [ %storemerge8.i.i, %7 ], [ %storemerge8.i.i, %7 ], [ %storemerge8.i.i, %7 ], [ %storemerge8.i.i, %7 ], [ %storemerge8.i.i, %7 ], [ %scevgep.i.i.i, %12 ], [ %.09.i.i.i, %.lr.ph.i.i.i ], [ %.09.i.i.i, %.lr.ph.i.i.i ]
  %14 = getelementptr inbounds nuw i8, ptr %.0.i.i, i64 1
  %15 = icmp ult ptr %14, %3
  br i1 %15, label %7, label %ps_parser_skip_spaces.exit, !llvm.loop !8

ps_parser_skip_spaces.exit:                       ; preds = %7, %skip_comment.exit.i.i, %1
  %storemerge.lcssa.i.i = phi ptr [ %4, %1 ], [ %storemerge8.i.i, %7 ], [ %14, %skip_comment.exit.i.i ]
  store ptr %storemerge.lcssa.i.i, ptr %0, align 8
  %16 = tail call fastcc i64 @PS_Conv_ToInt(ptr noundef nonnull %0, ptr noundef %3)
  ret i64 %16
}